Certificate:
    Data:
        Version: 3 (0x2)
        Serial Number: 1 (0x1)
    Signature Algorithm: sha256WithRSAEncryption
        Issuer: C=US, ST=Washington, L=Seattle, O=Jungle Cat Software, CN=Example Foreman Root CA Cert
        Validity
            Not Before: May 28 17:01:38 2016 GMT
            Not After : May 26 17:01:38 2026 GMT
        Subject: C=US, ST=Washington, O=Jungle Cat Software, CN=foreman.example.net
        Subject Public Key Info:
            Public Key Algorithm: rsaEncryption
                Public-Key: (4096 bit)
                Modulus:
                    00:b7:63:e1:fb:98:48:a9:6d:7d:90:2f:db:7a:8d:
                    cb:ad:f5:98:bd:69:4f:c7:99:6c:38:56:c3:85:17:
                    ff:8a:40:94:e1:92:65:9b:f4:5d:1b:47:1f:77:eb:
                    29:78:bc:d4:cb:3a:90:f4:0b:cb:b2:48:a6:10:d6:
                    6a:c3:e8:4b:cd:1c:60:6c:a4:77:e4:0c:cb:53:8c:
                    9c:44:b6:0f:19:2a:b3:2f:d9:e3:9a:f2:62:37:c3:
                    dc:09:d7:14:98:d1:67:3a:4f:b0:a4:c2:4b:04:e8:
                    b5:2a:6d:05:f3:23:81:d5:d5:2d:68:bf:3d:00:d9:
                    5b:81:c3:8d:a8:cd:48:79:53:49:51:34:3e:ef:c8:
                    bc:3d:38:ed:b7:e7:af:d2:3d:04:2e:ca:86:27:12:
                    0a:26:91:b5:64:54:48:94:03:b8:4a:1a:44:96:aa:
                    b9:e7:1b:22:81:7b:d5:03:8e:f8:94:ef:49:4d:29:
                    d8:05:7e:66:bd:fd:aa:47:01:b8:dc:27:32:43:aa:
                    92:9a:b5:4c:c4:a2:72:a4:b6:7f:65:c1:a6:8f:50:
                    27:1f:46:b5:d1:cd:aa:9e:70:c1:29:04:58:79:30:
                    08:7e:57:7c:e4:75:2a:28:13:01:47:79:30:6e:df:
                    b0:16:80:e0:64:af:6d:36:b9:86:07:6e:00:d1:4c:
                    20:54:15:82:3e:cb:10:80:11:23:9a:01:a3:be:6e:
                    f1:6a:f0:fe:ae:83:58:9a:88:10:87:51:97:29:75:
                    be:27:41:74:93:95:c0:68:3f:d2:87:16:d1:7a:b1:
                    dd:39:5a:41:e4:87:c7:47:e4:c6:51:00:3a:34:85:
                    38:82:a6:6d:bf:c2:24:58:fa:ad:cb:93:cb:c2:ed:
                    c9:66:24:89:4c:7d:38:6c:c7:02:50:a3:e9:52:1d:
                    9e:a2:e4:f2:3e:56:52:85:ac:d4:d1:5c:51:1c:90:
                    07:b0:9f:ac:88:09:6b:9d:c2:87:f6:51:9f:bf:14:
                    a9:22:7b:c7:ae:f5:59:73:a1:d5:22:fe:56:40:ef:
                    90:80:e9:34:8d:b2:aa:8c:8a:99:42:51:71:f7:61:
                    15:e4:5c:ef:46:87:72:37:ea:46:6d:07:d3:6e:08:
                    99:f0:d2:3a:00:cf:56:6d:b1:57:77:3e:26:e3:a2:
                    26:f8:91:fc:1d:95:03:6c:c6:aa:f3:8c:00:31:af:
                    89:51:4f:b2:3b:9c:25:2e:e1:2b:3a:77:02:06:d3:
                    0c:01:b4:57:49:ce:4f:de:64:f6:2c:b6:4f:13:2b:
                    f6:53:87:e6:53:6b:ef:a6:84:b4:9d:3b:4c:ac:f9:
                    99:60:b9:df:23:6e:0d:38:f1:8c:f7:de:e9:73:df:
                    c0:97:63
                Exponent: 65537 (0x10001)
        X509v3 extensions:
            X509v3 Basic Constraints: 
                CA:FALSE
            Netscape Comment: 
                OpenSSL Generated Certificate
            X509v3 Subject Key Identifier: 
                3F:25:AB:2C:63:0F:B5:34:A2:7C:0F:0F:B7:67:17:CB:57:D1:36:20
            X509v3 Authority Key Identifier: 
                keyid:A7:21:2A:C9:71:3E:CA:A1:14:59:0A:E3:4A:F7:1D:0F:D1:C2:F4:6F

    Signature Algorithm: sha256WithRSAEncryption
         3b:6d:9c:28:80:e6:59:59:24:e8:32:5a:54:b5:69:e6:d2:6f:
         4b:94:be:38:df:f6:dc:c2:eb:7b:84:37:1a:9c:2f:d9:99:4c:
         74:52:03:2b:9b:2b:31:dd:f4:1f:b5:84:75:5d:af:76:16:9a:
         2c:cc:7b:e0:fd:49:b0:2f:ad:a7:e5:b0:4b:b4:d7:f7:97:da:
         d7:db:9a:67:8c:3d:ae:fb:96:c4:fb:8f:c8:d2:21:12:6d:c8:
         b0:28:50:81:e1:d3:ec:8c:a1:77:60:6c:dc:fe:c7:63:8e:36:
         c9:e6:33:80:6d:81:f8:ed:3f:c6:95:49:83:23:29:57:e8:ee:
         02:e1:72:e1:32:35:27:d8:86:32:25:3a:c4:01:66:05:20:7f:
         00:3b:d5:ba:f4:ff:3d:24:70:20:ba:a4:43:5e:94:1a:07:7e:
         7e:2a:92:18:3b:8e:79:2b:dd:8a:37:45:af:1e:95:3b:35:44:
         33:30:4c:c7:e7:04:c2:ed:42:ba:e3:e7:df:39:99:fd:35:19:
         dd:b5:11:76:c9:3d:26:dd:c4:54:ba:d6:c5:85:e5:6f:2a:c6:
         ac:ee:13:42:49:ed:85:7a:d4:fc:c8:65:06:dd:06:8f:7c:4e:
         67:ac:a0:02:fe:74:55:60:e7:97:db:ca:5e:1c:f0:25:27:63:
         fa:48:0a:e5:76:b5:c2:17:46:02:86:b5:d5:a6:76:8d:1c:7d:
         b7:49:16:db:43:70:91:2a:dd:84:5a:5f:d9:8e:8d:16:77:fd:
         d4:9d:c7:d3:51:35:5b:26:35:6d:96:bb:e3:80:be:d6:4e:cc:
         98:f7:17:cd:d0:d0:9a:5c:5b:87:61:a9:d1:2b:27:f7:ed:54:
         aa:26:13:5b:f8:d3:2d:c2:1d:2f:cd:bd:ae:0f:c0:74:1b:a5:
         66:49:96:97:b7:f7:78:1a:f1:96:c4:e2:25:f6:19:be:5b:c0:
         a8:fd:d5:b9:8d:52:56:ae:61:3e:63:a6:1e:9e:ea:59:b5:80:
         5d:b1:7f:7e:82:c0:b8:ee:73:74:9c:77:9b:fb:57:3f:67:99:
         75:8f:17:9b:eb:e2:03:dc:9f:3e:21:60:dd:69:fd:f9:27:c8:
         8f:d8:7f:e4:d7:ef:03:3c:be:5c:a9:d6:38:4d:b4:b7:ab:25:
         52:0f:5d:72:6d:22:d1:4f:3d:8e:ac:d2:4c:0d:55:69:a6:4a:
         40:a0:bb:fd:d0:ad:22:86:31:88:43:f3:b9:e4:3b:41:eb:e8:
         41:38:23:4a:fe:d4:0a:4a:50:e2:86:da:6b:26:a4:19:14:09:
         26:ac:d8:36:47:75:bc:f0:64:11:92:3d:74:14:98:88:be:9e:
         65:1d:79:10:59:de:0f:c9
-----BEGIN CERTIFICATE-----
MIIFzTCCA7WgAwIBAgIBATANBgkqhkiG9w0BAQsFADB5MQswCQYDVQQGEwJVUzET
MBEGA1UECAwKV2FzaGluZ3RvbjEQMA4GA1UEBwwHU2VhdHRsZTEcMBoGA1UECgwT
SnVuZ2xlIENhdCBTb2Z0d2FyZTElMCMGA1UEAwwcRXhhbXBsZSBGb3JlbWFuIFJv
b3QgQ0EgQ2VydDAeFw0xNjA1MjgxNzAxMzhaFw0yNjA1MjYxNzAxMzhaMF4xCzAJ
BgNVBAYTAlVTMRMwEQYDVQQIDApXYXNoaW5ndG9uMRwwGgYDVQQKDBNKdW5nbGUg
Q2F0IFNvZnR3YXJlMRwwGgYDVQQDDBNmb3JlbWFuLmV4YW1wbGUubmV0MIICIjAN
BgkqhkiG9w0BAQEFAAOCAg8AMIICCgKCAgEAt2Ph+5hIqW19kC/beo3LrfWYvWlP
x5lsOFbDhRf/ikCU4ZJlm/RdG0cfd+speLzUyzqQ9AvLskimENZqw+hLzRxgbKR3
5AzLU4ycRLYPGSqzL9njmvJiN8PcCdcUmNFnOk+wpMJLBOi1Km0F8yOB1dUtaL89
ANlbgcONqM1IeVNJUTQ+78i8PTjtt+ev0j0ELsqGJxIKJpG1ZFRIlAO4ShpElqq5
5xsigXvVA474lO9JTSnYBX5mvf2qRwG43CcyQ6qSmrVMxKJypLZ/ZcGmj1AnH0a1
0c2qnnDBKQRYeTAIfld85HUqKBMBR3kwbt+wFoDgZK9tNrmGB24A0UwgVBWCPssQ
gBEjmgGjvm7xavD+roNYmogQh1GXKXW+J0F0k5XAaD/ShxbRerHdOVpB5IfHR+TG
UQA6NIU4gqZtv8IkWPqty5PLwu3JZiSJTH04bMcCUKPpUh2eouTyPlZShazU0VxR
HJAHsJ+siAlrncKH9lGfvxSpInvHrvVZc6HVIv5WQO+QgOk0jbKqjIqZQlFx92EV
5FzvRodyN+pGbQfTbgiZ8NI6AM9WbbFXdz4m46Im+JH8HZUDbMaq84wAMa+JUU+y
O5wlLuErOncCBtMMAbRXSc5P3mT2LLZPEyv2U4fmU2vvpoS0nTtMrPmZYLnfI24N
OPGM997pc9/Al2MCAwEAAaN7MHkwCQYDVR0TBAIwADAsBglghkgBhvhCAQ0EHxYd
T3BlblNTTCBHZW5lcmF0ZWQgQ2VydGlmaWNhdGUwHQYDVR0OBBYEFD8lqyxjD7U0
onwPD7dnF8tX0TYgMB8GA1UdIwQYMBaAFKchKslxPsqhFFkK40r3HQ/RwvRvMA0G
CSqGSIb3DQEBCwUAA4ICAQA7bZwogOZZWSToMlpUtWnm0m9LlL443/bcwut7hDca
nC/ZmUx0UgMrmysx3fQftYR1Xa92FposzHvg/UmwL62n5bBLtNf3l9rX25pnjD2u
+5bE+4/I0iESbciwKFCB4dPsjKF3YGzc/sdjjjbJ5jOAbYH47T/GlUmDIylX6O4C
4XLhMjUn2IYyJTrEAWYFIH8AO9W69P89JHAguqRDXpQaB35+KpIYO455K92KN0Wv
HpU7NUQzMEzH5wTC7UK64+ffOZn9NRndtRF2yT0m3cRUutbFheVvKsas7hNCSe2F
etT8yGUG3QaPfE5nrKAC/nRVYOeX28peHPAlJ2P6SArldrXCF0YChrXVpnaNHH23
SRbbQ3CRKt2EWl/Zjo0Wd/3UncfTUTVbJjVtlrvjgL7WTsyY9xfN0NCaXFuHYanR
Kyf37VSqJhNb+NMtwh0vzb2uD8B0G6VmSZaXt/d4GvGWxOIl9hm+W8Co/dW5jVJW
rmE+Y6YenupZtYBdsX9+gsC47nN0nHeb+1c/Z5l1jxeb6+ID3J8+IWDdaf35J8iP
2H/k1+8DPL5cqdY4TbS3qyVSD11ybSLRTz2OrNJMDVVppkpAoLv90K0ihjGIQ/O5
5DtB6+hBOCNK/tQKSlDihtprJqQZFAkmrNg2R3W88GQRkj10FJiIvp5lHXkQWd4P
yQ==
-----END CERTIFICATE-----
