Certificate:
    Data:
        Version: 3 (0x2)
        Serial Number: 2 (0x2)
    Signature Algorithm: sha256WithRSAEncryption
        Issuer: C=US, ST=Washington, L=Seattle, O=Jungle Cat Software, CN=Example Foreman Root CA Cert
        Validity
            Not Before: May 28 19:49:00 2016 GMT
            Not After : May 26 19:49:00 2026 GMT
        Subject: C=US, ST=Washington, O=Jungle Cat Software, CN=puppet.example.net
        Subject Public Key Info:
            Public Key Algorithm: rsaEncryption
                Public-Key: (4096 bit)
                Modulus:
                    00:aa:20:44:e6:76:97:ac:84:35:4a:54:9d:31:3a:
                    a0:28:77:fd:a8:5a:49:50:83:7a:f3:62:e0:fc:b5:
                    86:d2:68:16:53:16:b7:b6:dc:20:f3:e0:35:72:f5:
                    11:d4:84:dc:3d:d1:85:a5:21:55:ce:f9:ef:17:ab:
                    5b:d3:d7:ab:9d:70:8c:d1:6b:eb:93:56:0d:53:fc:
                    db:9f:a0:f8:29:76:6e:3a:4b:75:f3:d2:a0:59:19:
                    ff:ab:10:af:62:ad:1c:b5:a8:25:da:ab:9e:63:05:
                    02:5e:9b:8a:7d:bf:89:19:fe:f2:b8:f5:67:7b:e9:
                    62:e3:0e:1d:1c:9c:fd:cc:37:e0:c8:85:bb:0d:1d:
                    92:58:92:53:01:ea:23:16:93:48:e9:93:c6:59:46:
                    ad:5c:7b:41:fa:6f:87:8d:9c:98:18:db:b4:3e:e0:
                    a0:6a:39:96:53:cc:f7:c9:47:f7:46:f5:7d:0b:ca:
                    62:55:80:3b:6f:fd:eb:6d:43:e6:b0:89:fb:78:5c:
                    27:63:98:d0:72:55:30:83:d4:e2:22:17:61:b7:1f:
                    3c:be:d0:95:a1:a8:f7:a0:6a:10:cc:03:ef:f1:a2:
                    b4:4c:66:ee:cf:35:43:c0:19:88:3f:aa:ca:1a:73:
                    dc:0c:35:af:75:ed:28:f9:24:ca:d2:de:2a:2c:55:
                    6f:95:ca:97:1a:5f:9f:ef:53:c4:ce:14:03:e0:89:
                    c8:46:a1:a9:59:71:96:9c:78:ae:77:33:63:44:a0:
                    7a:89:f2:a9:ec:01:a5:24:60:ce:9b:c1:32:b4:44:
                    d1:8e:7d:de:c2:e9:58:36:e0:3f:3b:f7:9d:2d:88:
                    29:25:ab:d3:ab:a9:5b:19:8c:9a:44:7d:d2:55:ed:
                    61:30:0f:a7:3a:fe:46:93:f1:63:27:d2:6a:63:f4:
                    fc:ad:ef:01:d7:dc:a1:11:c7:5e:14:65:d9:2b:ff:
                    7a:45:02:bc:72:0a:9a:db:02:4b:e2:bb:6d:47:75:
                    d1:d1:55:ab:6b:11:21:f8:7e:bb:a7:fa:d0:31:0e:
                    33:59:15:a4:1d:4d:f5:bc:41:d3:a4:30:75:3d:b8:
                    3c:cc:eb:ea:0d:b6:9c:a6:dd:9a:59:5c:c4:4b:55:
                    f5:68:63:52:a1:bd:06:2b:4d:f6:28:0e:b8:26:c5:
                    11:cb:0c:95:40:7e:f5:ba:41:af:1d:78:c8:99:aa:
                    e3:86:e4:3e:d1:3d:7b:35:a6:a9:e8:79:1c:8f:cc:
                    d7:48:02:ca:26:24:4d:e1:4b:22:90:80:73:35:cc:
                    d5:fd:7a:06:da:74:60:84:32:ec:c4:9f:fc:b2:3a:
                    11:6d:ca:5c:5b:d5:ec:43:d6:56:99:e0:6b:2b:0a:
                    06:05:5b
                Exponent: 65537 (0x10001)
        X509v3 extensions:
            X509v3 Basic Constraints: 
                CA:FALSE
            Netscape Comment: 
                OpenSSL Generated Certificate
            X509v3 Subject Key Identifier: 
                25:98:72:6A:E7:24:34:01:EE:59:1D:CE:6F:53:E4:7B:90:33:E8:8A
            X509v3 Authority Key Identifier: 
                keyid:A7:21:2A:C9:71:3E:CA:A1:14:59:0A:E3:4A:F7:1D:0F:D1:C2:F4:6F

    Signature Algorithm: sha256WithRSAEncryption
         b8:73:30:ec:d9:8b:81:8d:ee:0b:9f:11:97:57:58:65:e5:1f:
         88:48:fa:e1:78:87:61:18:5b:c8:5b:3a:f8:d7:61:49:6e:e2:
         a6:15:42:67:91:7b:b9:01:7c:e9:db:da:4d:bf:e6:71:5f:39:
         e3:a1:d1:40:81:b2:71:4f:52:27:53:e3:b0:32:20:00:6f:27:
         ce:0c:40:e6:00:57:09:21:06:00:ac:40:80:d2:72:82:04:be:
         60:cd:59:b2:ef:72:44:f8:42:eb:ad:3d:a7:3b:0b:71:87:ee:
         77:7e:b7:28:60:9b:62:c3:b8:f1:0a:5b:db:c2:3f:62:b0:27:
         62:24:87:8b:cd:a5:5a:c1:d5:c8:ea:0e:85:e6:44:4f:32:01:
         24:f6:2b:71:14:fc:82:c3:db:af:69:c9:b0:0a:c7:d9:75:24:
         eb:18:ae:9c:a3:5f:d4:7f:fe:c2:29:55:bd:9f:66:4c:7e:b5:
         b4:a2:6a:5e:5c:c5:05:89:4c:42:75:83:2a:70:2a:ab:d4:eb:
         5c:48:c0:9a:a4:08:ef:82:41:23:cc:2c:33:12:ad:47:d1:e8:
         c9:3c:cf:48:19:04:f0:6e:3f:30:a9:4f:74:1a:0c:f9:7d:44:
         09:4c:cb:94:02:45:27:93:ec:59:5c:cb:1d:6a:f8:01:d9:21:
         b1:08:2b:d9:30:2c:c1:fa:b9:88:34:0c:ab:1e:bf:a2:cd:3e:
         8d:5f:26:a4:c6:d0:0e:62:e9:8c:23:4a:b3:45:01:57:5f:9f:
         ae:ad:36:5f:77:dc:84:6a:41:54:98:be:de:41:19:7c:fa:51:
         e9:e5:72:cf:4f:e3:3d:a8:9f:a4:30:bb:ff:26:2f:53:12:c3:
         f1:5a:cc:d3:9c:10:83:62:f5:6e:50:4b:44:99:57:c8:34:12:
         5a:9c:28:22:a2:f1:c9:20:0f:e1:44:46:a1:25:bc:c3:59:a0:
         d8:aa:6e:3b:7f:b5:8f:f8:24:2b:26:01:8f:1d:66:19:aa:05:
         cb:15:dc:2f:ad:4b:bc:b1:36:d8:6e:54:c7:55:05:eb:75:e4:
         3a:0f:05:da:05:11:18:90:e0:3b:1a:4b:8c:c9:e1:35:24:0b:
         45:1e:03:e1:50:96:11:47:e7:f7:50:7b:c7:49:f8:f9:aa:e4:
         3f:99:e2:ae:6f:9a:08:2d:45:40:70:3e:6e:9f:67:76:f2:08:
         76:4b:b8:43:e7:ab:2f:4e:98:87:73:8e:86:81:53:b8:52:8b:
         f8:56:56:94:95:37:e8:ce:ad:ad:10:c2:b2:e8:c7:8b:93:85:
         27:f2:59:3a:cf:ae:de:98:49:87:e8:a4:b7:49:a2:1f:05:88:
         ba:35:df:81:26:9d:88:f8
-----BEGIN CERTIFICATE-----
MIIFzDCCA7SgAwIBAgIBAjANBgkqhkiG9w0BAQsFADB5MQswCQYDVQQGEwJVUzET
MBEGA1UECAwKV2FzaGluZ3RvbjEQMA4GA1UEBwwHU2VhdHRsZTEcMBoGA1UECgwT
SnVuZ2xlIENhdCBTb2Z0d2FyZTElMCMGA1UEAwwcRXhhbXBsZSBGb3JlbWFuIFJv
b3QgQ0EgQ2VydDAeFw0xNjA1MjgxOTQ5MDBaFw0yNjA1MjYxOTQ5MDBaMF0xCzAJ
BgNVBAYTAlVTMRMwEQYDVQQIDApXYXNoaW5ndG9uMRwwGgYDVQQKDBNKdW5nbGUg
Q2F0IFNvZnR3YXJlMRswGQYDVQQDDBJwdXBwZXQuZXhhbXBsZS5uZXQwggIiMA0G
CSqGSIb3DQEBAQUAA4ICDwAwggIKAoICAQCqIETmdpeshDVKVJ0xOqAod/2oWklQ
g3rzYuD8tYbSaBZTFre23CDz4DVy9RHUhNw90YWlIVXO+e8Xq1vT16udcIzRa+uT
Vg1T/NufoPgpdm46S3Xz0qBZGf+rEK9irRy1qCXaq55jBQJem4p9v4kZ/vK49Wd7
6WLjDh0cnP3MN+DIhbsNHZJYklMB6iMWk0jpk8ZZRq1ce0H6b4eNnJgY27Q+4KBq
OZZTzPfJR/dG9X0LymJVgDtv/ettQ+awift4XCdjmNByVTCD1OIiF2G3Hzy+0JWh
qPegahDMA+/xorRMZu7PNUPAGYg/qsoac9wMNa917Sj5JMrS3iosVW+VypcaX5/v
U8TOFAPgichGoalZcZaceK53M2NEoHqJ8qnsAaUkYM6bwTK0RNGOfd7C6Vg24D87
950tiCklq9OrqVsZjJpEfdJV7WEwD6c6/kaT8WMn0mpj9Pyt7wHX3KERx14UZdkr
/3pFArxyCprbAkviu21HddHRVatrESH4frun+tAxDjNZFaQdTfW8QdOkMHU9uDzM
6+oNtpym3ZpZXMRLVfVoY1KhvQYrTfYoDrgmxRHLDJVAfvW6Qa8deMiZquOG5D7R
PXs1pqnoeRyPzNdIAsomJE3hSyKQgHM1zNX9egbadGCEMuzEn/yyOhFtylxb1exD
1laZ4GsrCgYFWwIDAQABo3sweTAJBgNVHRMEAjAAMCwGCWCGSAGG+EIBDQQfFh1P
cGVuU1NMIEdlbmVyYXRlZCBDZXJ0aWZpY2F0ZTAdBgNVHQ4EFgQUJZhyauckNAHu
WR3Ob1Pke5Az6IowHwYDVR0jBBgwFoAUpyEqyXE+yqEUWQrjSvcdD9HC9G8wDQYJ
KoZIhvcNAQELBQADggIBALhzMOzZi4GN7gufEZdXWGXlH4hI+uF4h2EYW8hbOvjX
YUlu4qYVQmeRe7kBfOnb2k2/5nFfOeOh0UCBsnFPUidT47AyIABvJ84MQOYAVwkh
BgCsQIDScoIEvmDNWbLvckT4QuutPac7C3GH7nd+tyhgm2LDuPEKW9vCP2KwJ2Ik
h4vNpVrB1cjqDoXmRE8yAST2K3EU/ILD269pybAKx9l1JOsYrpyjX9R//sIpVb2f
Zkx+tbSial5cxQWJTEJ1gypwKqvU61xIwJqkCO+CQSPMLDMSrUfR6Mk8z0gZBPBu
PzCpT3QaDPl9RAlMy5QCRSeT7Flcyx1q+AHZIbEIK9kwLMH6uYg0DKsev6LNPo1f
JqTG0A5i6YwjSrNFAVdfn66tNl933IRqQVSYvt5BGXz6Uenlcs9P4z2on6Qwu/8m
L1MSw/FazNOcEINi9W5QS0SZV8g0ElqcKCKi8ckgD+FERqElvMNZoNiqbjt/tY/4
JCsmAY8dZhmqBcsV3C+tS7yxNthuVMdVBet15DoPBdoFERiQ4DsaS4zJ4TUkC0Ue
A+FQlhFH5/dQe8dJ+Pmq5D+Z4q5vmggtRUBwPm6fZ3byCHZLuEPnqy9OmIdzjoaB
U7hSi/hWVpSVN+jOra0QwrLox4uThSfyWTrPrt6YSYfopLdJoh8FiLo134EmnYj4
-----END CERTIFICATE-----
